target datalayout = "e-m:e-p270:32:32-p271:32:32-p272:64:64-i64:64-i128:128-f80:128-n8:16:32:64-S128"
target triple = "x86_64-pc-linux-gnu"

%"class.sat::literal" = type { i32 }
%class.rational = type { %class.mpq }
%class.mpq = type { %class.mpz, %class.mpz }
%class.mpz = type { i32, i8, ptr }
%class.symbol = type { ptr }
%"struct.smt::theory_pb::arg_t" = type { %class.vector, %class.rational }
%class.vector = type { ptr }
%class.ref_vector = type { %class.ref_vector_core }
%class.ref_vector_core = type { %class.ref_manager_wrapper, %class.ptr_vector }
%class.ref_manager_wrapper = type { ptr }
%class.ptr_vector = type { %class.vector.4 }
%class.vector.4 = type { ptr }
%class.pb_util = type { ptr, i32, %class.vector.289, %class.vector.290, %class.rational }
%class.vector.289 = type { ptr }
%class.vector.290 = type { ptr }
%class.u_map = type { %class.map }
%class.map = type { %class.table2map }
%class.table2map = type { %class.core_hashtable.9 }
%class.core_hashtable.9 = type <{ ptr, i32, i32, i32, [4 x i8] }>
%class.obj_map.24 = type { %class.core_hashtable.25 }
%class.core_hashtable.25 = type <{ ptr, i32, i32, i32, [4 x i8] }>
%class.ptr_vector.57 = type { %class.vector.58 }
%class.vector.58 = type { ptr }
%class.svector.87 = type { %class.vector.88 }
%class.vector.88 = type { ptr }
%class.ptr_vector.164 = type { %class.vector.165 }
%class.vector.165 = type { ptr }
%class.svector.5 = type { %class.vector.6 }
%class.vector.6 = type { ptr }
%class.svector.195 = type { %class.vector.196 }
%class.vector.196 = type { ptr }
%class.svector.237 = type { %class.vector.238 }
%class.vector.238 = type { ptr }
%class.uint_set = type { %class.svector.5 }
%class.svector.254 = type { %class.vector.255 }
%class.vector.255 = type { ptr }
%class.svector.11 = type { %class.vector.12 }
%class.vector.12 = type { ptr }
%"struct.smt::theory_pb::ineq" = type <{ ptr, %"class.sat::literal", i8, [3 x i8], [2 x %"struct.smt::theory_pb::arg_t"], %class._scoped_numeral, i32, [4 x i8], %class._scoped_numeral, i32, [4 x i8], %class._scoped_numeral, %class._scoped_numeral, i32, [4 x i8] }>
%class._scoped_numeral = type { ptr, %class.mpz }
%"class.smt::theory_pb" = type { %"class.smt::theory.base", [3 x i8], %struct.theory_pb_params, %class.svector.291, %class.mpz_manager, %class._scoped_numeral_vector, %class.svector.5, %class.svector.5, %class.svector.195, %class.pb_util, %"struct.smt::theory_pb::stats", i32, i8, i32, i32, %class.uint_set, %class.svector.5, %class.svector.5, i32, %class.svector.195, i32, %class.svector.87, %class.svector.5, i32, %class.svector.195, %class.tracked_uint_set, %class.ref_vector, %class.svector.11, %class.ref_vector, %class.svector.11, %class.vector.295, %class.svector.5 }
%"class.smt::theory.base" = type <{ ptr, i32, [4 x i8], ptr, ptr, %class.ptr_vector.164, %class.svector.5, i32, i8 }>
%struct.theory_pb_params = type <{ i32, i8, [3 x i8] }>
%class.svector.291 = type { %class.vector.292 }
%class.vector.292 = type { ptr }
%class.mpz_manager = type { %class.small_object_allocator, %"class.std::recursive_mutex", [4 x i8], i32, %class.mpz, %class.mpz }
%class.small_object_allocator = type { [32 x ptr], [32 x ptr], i64 }
%"class.std::recursive_mutex" = type { %"class.std::__recursive_mutex_base" }
%"class.std::__recursive_mutex_base" = type { %union.pthread_mutex_t }
%union.pthread_mutex_t = type { %struct.__pthread_mutex_s }
%struct.__pthread_mutex_s = type { i32, i32, i32, i32, i32, i16, i16, %struct.__pthread_internal_list }
%struct.__pthread_internal_list = type { ptr, ptr }
%class._scoped_numeral_vector = type { %class.svector.293, ptr }
%class.svector.293 = type { %class.vector.294 }
%class.vector.294 = type { ptr }
%"struct.smt::theory_pb::stats" = type { i32, i32, i32, i32 }
%class.tracked_uint_set = type { %class.svector.254, %class.svector.5 }
%class.vector.295 = type { ptr }
%"class.smt::theory" = type <{ ptr, i32, [4 x i8], ptr, ptr, %class.ptr_vector.164, %class.svector.5, i32, i8, [3 x i8] }>
%class.ast_manager = type { %class.reslimit, %class.small_object_allocator, %class.family_manager, %class.parray_manager, %class.dependency_manager, %class.parray_manager.275, %class.ptr_vector.278, i32, i8, %class.ast_table, %class.obj_map.24, %class.id_gen, %class.id_gen, ptr, ptr, ptr, ptr, ptr, i32, i8, [3 x i8], %class.u_map, ptr, i8, i8, ptr, %class.symbol, %class.obj_map.282, ptr }
%class.reslimit = type { %"struct.std::atomic", i8, i64, i64, %class.svector.237, %class.ptr_vector.266 }
%"struct.std::atomic" = type { %"struct.std::__atomic_base" }
%"struct.std::__atomic_base" = type { i32 }
%class.ptr_vector.266 = type { %class.vector.267 }
%class.vector.267 = type { ptr }
%class.family_manager = type { i32, %class.symbol_table, %class.svector.271 }
%class.symbol_table = type { %class.core_hashtable.268, %class.vector.270, %class.svector.87 }
%class.core_hashtable.268 = type <{ ptr, i32, i32, i32, [4 x i8] }>
%class.vector.270 = type { ptr }
%class.svector.271 = type { %class.vector.272 }
%class.vector.272 = type { ptr }
%class.parray_manager = type { ptr, ptr, %class.ptr_vector.273, %class.ptr_vector.273 }
%class.ptr_vector.273 = type { %class.vector.274 }
%class.vector.274 = type { ptr }
%class.dependency_manager = type { ptr, ptr, %class.ptr_vector.57 }
%class.parray_manager.275 = type { ptr, ptr, %class.ptr_vector.276, %class.ptr_vector.276 }
%class.ptr_vector.276 = type { %class.vector.277 }
%class.vector.277 = type { ptr }
%class.ptr_vector.278 = type { %class.vector.279 }
%class.vector.279 = type { ptr }
%class.ast_table = type { %class.chashtable.280 }
%class.chashtable.280 = type { ptr, i32, i32, i32, i32, i32, i32, i32, ptr, ptr, ptr }
%class.id_gen = type { i32, %class.svector.5 }
%class.obj_map.282 = type { %class.core_hashtable.283 }
%class.core_hashtable.283 = type <{ ptr, i32, i32, i32, [4 x i8] }>

; Function Attrs: mustprogress nounwind uwtable
define linkonce_odr hidden noundef zeroext i1 @_ZNK11ast_manager14proofs_enabledEv(ptr noundef nonnull align 8 dereferenceable(976) %0) #4 comdat align 2 {
  %2 = alloca ptr, align 8
  store ptr %0, ptr %2, align 8, !tbaa !78
  %3 = load ptr, ptr %2, align 8
  %4 = getelementptr inbounds nuw %class.ast_manager, ptr %3, i32 0, i32 7
  %5 = load i32, ptr %4, align 8, !tbaa !1012
  %6 = icmp ne i32 %5, 0
  ret i1 %6
}

; Function Attrs: mustprogress nounwind uwtable
define linkonce_odr hidden noundef nonnull align 8 dereferenceable(976) ptr @_ZNK3smt6theory11get_managerEv(ptr noundef nonnull align 8 dereferenceable(53) %0) #4 comdat align 2 {
  %2 = alloca ptr, align 8
  store ptr %0, ptr %2, align 8, !tbaa !627
  %3 = load ptr, ptr %2, align 8
  %4 = getelementptr inbounds nuw %"class.smt::theory", ptr %3, i32 0, i32 4
  %5 = load ptr, ptr %4, align 8, !tbaa !629
  ret ptr %5
}

; Function Attrs: mustprogress nounwind uwtable
define linkonce_odr hidden noundef ptr @_ZNK6vectorIN3sat7literalELb0EjE4dataEv(ptr noundef nonnull align 8 dereferenceable(8) %0) #4 comdat align 2 {
  %2 = alloca ptr, align 8
  store ptr %0, ptr %2, align 8, !tbaa !621
  %3 = load ptr, ptr %2, align 8
  %4 = getelementptr inbounds nuw %class.vector.196, ptr %3, i32 0, i32 0
  %5 = load ptr, ptr %4, align 8, !tbaa !623
  ret ptr %5
}

; Function Attrs: mustprogress nounwind uwtable
define linkonce_odr hidden noundef i32 @_ZNK6vectorIN3sat7literalELb0EjE4sizeEv(ptr noundef nonnull align 8 dereferenceable(8) %0) #4 comdat align 2 {
  %2 = alloca i32, align 4
  %3 = alloca ptr, align 8
  store ptr %0, ptr %3, align 8, !tbaa !621
  %4 = load ptr, ptr %3, align 8
  %5 = getelementptr inbounds nuw %class.vector.196, ptr %4, i32 0, i32 0
  %6 = load ptr, ptr %5, align 8, !tbaa !623
  %7 = icmp eq ptr %6, null
  br i1 %7, label %8, label %9

8:                                                ; preds = %1
  store i32 0, ptr %2, align 4
  br label %14

9:                                                ; preds = %1
  %10 = getelementptr inbounds nuw %class.vector.196, ptr %4, i32 0, i32 0
  %11 = load ptr, ptr %10, align 8, !tbaa !623
  %12 = getelementptr inbounds i32, ptr %11, i64 -1
  %13 = load i32, ptr %12, align 4, !tbaa !8
  store i32 %13, ptr %2, align 4
  br label %14

14:                                               ; preds = %9, %8
  %15 = load i32, ptr %2, align 4
  ret i32 %15
}

; Function Attrs: mustprogress nounwind uwtable
define linkonce_odr hidden noundef i32 @_ZNK3smt6theory6get_idEv(ptr noundef nonnull align 8 dereferenceable(53) %0) #4 comdat align 2 {
  %2 = alloca ptr, align 8
  store ptr %0, ptr %2, align 8, !tbaa !627
  %3 = load ptr, ptr %2, align 8
  %4 = getelementptr inbounds nuw %"class.smt::theory", ptr %3, i32 0, i32 1
  %5 = load i32, ptr %4, align 8, !tbaa !710
  ret i32 %5
}

; Function Attrs: mustprogress uwtable
define linkonce_odr hidden noundef zeroext i1 @_ZNK3smt9theory_pb14proofs_enabledEv(ptr noundef nonnull align 8 dereferenceable(968) %0) #6 comdat align 2 {
  %2 = alloca ptr, align 8
  store ptr %0, ptr %2, align 8, !tbaa !624
  %3 = load ptr, ptr %2, align 8
  %4 = call noundef nonnull align 8 dereferenceable(976) ptr @_ZNK3smt6theory11get_managerEv(ptr noundef nonnull align 8 dereferenceable(53) %3)
  %5 = call noundef zeroext i1 @_ZNK11ast_manager14proofs_enabledEv(ptr noundef nonnull align 8 dereferenceable(976) %4)
  ret i1 %5
}

; Function Attrs: mustprogress nounwind uwtable
define hidden void @_ZN3smt9theory_pb16inc_propagationsERNS0_4ineqE(ptr noundef nonnull align 8 dereferenceable(968) %0, ptr noundef nonnull align 8 dereferenceable(212) %1) #4 align 2 {
  %3 = alloca ptr, align 8
  %4 = alloca ptr, align 8
  store ptr %0, ptr %3, align 8, !tbaa !624
  store ptr %1, ptr %4, align 8, !tbaa !597
  %5 = load ptr, ptr %4, align 8, !tbaa !597
  %6 = getelementptr inbounds nuw %"struct.smt::theory_pb::ineq", ptr %5, i32 0, i32 13
  %7 = load i32, ptr %6, align 8, !tbaa !603
  %8 = add i32 %7, 1
  store i32 %8, ptr %6, align 8, !tbaa !603
  ret void
}

; Function Attrs: mustprogress uwtable
define hidden void @_ZN3smt9theory_pb10add_clauseERNS0_4ineqERK7svectorIN3sat7literalEjE(ptr noundef nonnull align 8 dereferenceable(968) %0, ptr noundef nonnull align 8 dereferenceable(212) %1, ptr noundef nonnull align 8 dereferenceable(8) %2) #6 align 2 {
  %4 = alloca ptr, align 8
  %5 = alloca ptr, align 8
  %6 = alloca ptr, align 8
  %7 = alloca ptr, align 8
  store ptr %0, ptr %4, align 8, !tbaa !624
  store ptr %1, ptr %5, align 8, !tbaa !597
  store ptr %2, ptr %6, align 8, !tbaa !637
  %8 = load ptr, ptr %4, align 8
  %9 = load ptr, ptr %5, align 8, !tbaa !597
  call void @_ZN3smt9theory_pb16inc_propagationsERNS0_4ineqE(ptr noundef nonnull align 8 dereferenceable(968) %8, ptr noundef nonnull align 8 dereferenceable(212) %9)
  %10 = getelementptr inbounds nuw %"class.smt::theory_pb", ptr %8, i32 0, i32 10
  %11 = getelementptr inbounds nuw %"struct.smt::theory_pb::stats", ptr %10, i32 0, i32 0
  %12 = load i32, ptr %11, align 8, !tbaa !658
  %13 = add i32 %12, 1
  store i32 %13, ptr %11, align 8, !tbaa !658
  call void @llvm.lifetime.start.p0(i64 8, ptr %7) #3
  store ptr null, ptr %7, align 8, !tbaa !18
  %14 = call noundef zeroext i1 @_ZNK3smt9theory_pb14proofs_enabledEv(ptr noundef nonnull align 8 dereferenceable(968) %8)
  br i1 %14, label %15, label %24

15:                                               ; preds = %3
  %16 = call noalias noundef ptr @_ZN6memory8allocateEm(i64 noundef 40)
  %17 = call noundef i32 @_ZNK3smt6theory6get_idEv(ptr noundef nonnull align 8 dereferenceable(53) %8)
  %18 = getelementptr inbounds nuw %"class.smt::theory", ptr %8, i32 0, i32 3
  %19 = load ptr, ptr %18, align 8, !tbaa !634
  %20 = load ptr, ptr %6, align 8, !tbaa !637
  %21 = call noundef i32 @_ZNK6vectorIN3sat7literalELb0EjE4sizeEv(ptr noundef nonnull align 8 dereferenceable(8) %20)
  %22 = load ptr, ptr %6, align 8, !tbaa !637
  %23 = call noundef ptr @_ZNK6vectorIN3sat7literalELb0EjE4dataEv(ptr noundef nonnull align 8 dereferenceable(8) %22)
  call void @_ZN3smt26theory_lemma_justificationC1EiRNS_7contextEjPKN3sat7literalEjP9parameter(ptr noundef nonnull align 8 dereferenceable(40) %16, i32 noundef %17, ptr noundef nonnull align 8 dereferenceable(10544) %19, i32 noundef %21, ptr noundef %23, i32 noundef 0, ptr noundef null)
  store ptr %16, ptr %7, align 8, !tbaa !18
  br label %24

24:                                               ; preds = %15, %3
  %25 = getelementptr inbounds nuw %"class.smt::theory", ptr %8, i32 0, i32 3
  %26 = load ptr, ptr %25, align 8, !tbaa !634
  %27 = load ptr, ptr %6, align 8, !tbaa !637
  %28 = call noundef i32 @_ZNK6vectorIN3sat7literalELb0EjE4sizeEv(ptr noundef nonnull align 8 dereferenceable(8) %27)
  %29 = load ptr, ptr %6, align 8, !tbaa !637
  %30 = call noundef ptr @_ZNK6vectorIN3sat7literalELb0EjE4dataEv(ptr noundef nonnull align 8 dereferenceable(8) %29)
  %31 = load ptr, ptr %7, align 8, !tbaa !18
  %32 = call noundef ptr @_ZN3smt7context9mk_clauseEjPN3sat7literalEPNS_13justificationENS_11clause_kindEPNS_13clause_del_ehE(ptr noundef nonnull align 8 dereferenceable(10544) %26, i32 noundef %28, ptr noundef %30, ptr noundef %31, i32 noundef 3, ptr noundef null)
  call void @llvm.lifetime.end.p0(i64 8, ptr %7) #3
  ret void
}