; Function Attrs: mustprogress uwtable
define hidden void @_ZN3smt9theory_pb10add_clauseERNS0_4ineqERK7svectorIN3sat7literalEjE(ptr noundef nonnull align 8 captures(none) dereferenceable(968) %0, ptr noundef nonnull align 8 captures(none) dereferenceable(212) %1, ptr noundef nonnull readonly align 8 captures(none) dereferenceable(8) %2) local_unnamed_addr #4 align 2 {
  %4 = getelementptr inbounds nuw i8, ptr %1, i64 208
  %5 = load i32, ptr %4, align 8, !tbaa !645
  %6 = add i32 %5, 1
  store i32 %6, ptr %4, align 8, !tbaa !645
  %7 = getelementptr inbounds nuw i8, ptr %0, i64 776
  %8 = load i32, ptr %7, align 8, !tbaa !710
  %9 = add i32 %8, 1
  store i32 %9, ptr %7, align 8, !tbaa !710
  %10 = getelementptr inbounds nuw i8, ptr %0, i64 24
  %11 = load ptr, ptr %10, align 8, !tbaa !670
  %12 = getelementptr inbounds nuw i8, ptr %11, i64 712
  %13 = load i32, ptr %12, align 8, !tbaa !711
  %.not = icmp eq i32 %13, 0
  br i1 %.not, label %25, label %14

14:                                               ; preds = %3
  %15 = tail call noalias noundef ptr @_ZN6memory8allocateEm(i64 noundef 40)
  %16 = getelementptr inbounds nuw i8, ptr %0, i64 8
  %17 = load i32, ptr %16, align 8, !tbaa !698
  %18 = getelementptr inbounds nuw i8, ptr %0, i64 16
  %19 = load ptr, ptr %18, align 8, !tbaa !675
  %20 = load ptr, ptr %2, align 8, !tbaa !666
  %21 = icmp eq ptr %20, null
  br i1 %21, label %_ZNK6vectorIN3sat7literalELb0EjE4sizeEv.exit, label %22

22:                                               ; preds = %14
  %23 = getelementptr inbounds i8, ptr %20, i64 -4
  %24 = load i32, ptr %23, align 4, !tbaa !9
  br label %_ZNK6vectorIN3sat7literalELb0EjE4sizeEv.exit

_ZNK6vectorIN3sat7literalELb0EjE4sizeEv.exit:     ; preds = %14, %22
  %.0.i = phi i32 [ %24, %22 ], [ 0, %14 ]
  tail call void @_ZN3smt26theory_lemma_justificationC1EiRNS_7contextEjPKN3sat7literalEjP9parameter(ptr noundef nonnull align 8 dereferenceable(40) %15, i32 noundef %17, ptr noundef nonnull align 8 dereferenceable(10544) %19, i32 noundef %.0.i, ptr noundef %20, i32 noundef 0, ptr noundef null)
  br label %25

25:                                               ; preds = %_ZNK6vectorIN3sat7literalELb0EjE4sizeEv.exit, %3
  %.0 = phi ptr [ %15, %_ZNK6vectorIN3sat7literalELb0EjE4sizeEv.exit ], [ null, %3 ]
  %26 = getelementptr inbounds nuw i8, ptr %0, i64 16
  %27 = load ptr, ptr %26, align 8, !tbaa !675
  %28 = load ptr, ptr %2, align 8, !tbaa !666
  %29 = icmp eq ptr %28, null
  br i1 %29, label %_ZNK6vectorIN3sat7literalELb0EjE4sizeEv.exit8, label %30

30:                                               ; preds = %25
  %31 = getelementptr inbounds i8, ptr %28, i64 -4
  %32 = load i32, ptr %31, align 4, !tbaa !9
  br label %_ZNK6vectorIN3sat7literalELb0EjE4sizeEv.exit8

_ZNK6vectorIN3sat7literalELb0EjE4sizeEv.exit8:    ; preds = %25, %30
  %.0.i7 = phi i32 [ %32, %30 ], [ 0, %25 ]
  %33 = tail call noundef ptr @_ZN3smt7context9mk_clauseEjPN3sat7literalEPNS_13justificationENS_11clause_kindEPNS_13clause_del_ehE(ptr noundef nonnull align 8 dereferenceable(10544) %27, i32 noundef %.0.i7, ptr noundef %28, ptr noundef %.0, i32 noundef 3, ptr noundef null)
  ret void
}